(lp1
VMasonry/Concrete
p2
aVTruck Rental
p3
aVDrugstores
p4
aVDry Cleaning & Laundry
p5
aVAfghan
p6
aVTrains
p7
aVDog Parks
p8
aVBoating
p9
aVChild Care & Day Care
p10
aVEndodontists
p11
aVCreperies
p12
aVCanadian (New)
p13
aVTeppanyaki
p14
aVPretzels
p15
aVTapas Bars
p16
aVOrganic Stores
p17
aVPool & Hot Tub Service
p18
aVPaintball
p19
aVArchitects
p20
aVJuice Bars & Smoothies
p21
aVAudiologist
p22
aVPet Boarding/Pet Sitting
p23
aVGrocery
p24
aVPet Adoption
p25
aVHair Removal
p26
aVBuffets
p27
aVAdult Education
p28
aVCandy Stores
p29
aVCommunity Service/Non-Profit
p30
aVBowling
p31
aVRestaurants
p32
aVDJs
p33
aVFormal Wear
p34
aVHiking
p35
aVGeneral Festivals
p36
aVBankruptcy Law
p37
aVSkydiving
p38
aVDelis
p39
aVAnesthesiologists
p40
aVTanning
p41
aVHalal
p42
aVCantonese
p43
aVHerbs & Spices
p44
aVCustomized Merchandise
p45
aVTelecommunications
p46
aVCurry Sausage
p47
aVReal Estate Law
p48
aVChicken Wings
p49
aVLaser Eye Surgery/Lasik
p50
aVCar Share Services
p51
aVDiagnostic Services
p52
aVGold Buyers
p53
aVAntiques
p54
aVFood Stands
p55
aVOrthodontists
p56
aVShopping Centers
p57
aVOptometrists
p58
aVMountain Biking
p59
aVFirearm Training
p60
aVNail Salons
p61
aVPhoto Booth Rentals
p62
aVSki Resorts
p63
aVElementary Schools
p64
aVAutomotive
p65
aVUrologists
p66
aVInterior Design
p67
aVCosmetic Surgeons
p68
aVTravel Services
p69
aVLounges
p70
aVPersian/Iranian
p71
aVShoe Repair
p72
aVMongolian
p73
aVAnimal Shelters
p74
aVCafes
p75
aVAirports
p76
aVMen's Hair Salons
p77
aVHobby Shops
p78
aVGyms
p79
aVBartending Schools
p80
aVScandinavian
p81
aVGreek
p82
aVZoos
p83
aVHardware Stores
p84
aVArt Galleries
p85
aVBattery Stores
p86
aVWatch Repair
p87
aVLimos
p88
aVChinese
p89
aVHome Decor
p90
aVFood Trucks
p91
aVHealth & Medical
p92
aVBikes
p93
aVYoga
p94
aVOphthalmologists
p95
aVHookah Bars
p96
aVMiddle Eastern
p97
aVPaddleboarding
p98
aVFrench
p99
aVBrazilian
p100
aVBuilding Supplies
p101
aVLandscape Architects
p102
aVLegal Services
p103
aVShanghainese
p104
aVNutritionists
p105
aVDivorce & Family Law
p106
aVHungarian
p107
aVLandmarks & Historical Buildings
p108
aVCostumes
p109
aVSouvenir Shops
p110
aVDonairs
p111
aVVocational & Technical School
p112
aVDiners
p113
aVSports Bars
p114
aVCampgrounds
p115
aVRussian
p116
aVAuto Parts & Supplies
p117
aVSeafood Markets
p118
aVTennis
p119
aVVegetarian
p120
aVPiercing
p121
aVKosher
p122
aVFlea Markets
p123
aVPole Dancing Classes
p124
aVClimbing
p125
aVPita
p126
aVPainters
p127
aVCurrency Exchange
p128
aVCouriers & Delivery Services
p129
aVGerman
p130
aVTobacco Shops
p131
aVTaiwanese
p132
aVBus Tours
p133
aVHaitian
p134
aVLaotian
p135
aVMass Media
p136
aVBasque
p137
aVTowing
p138
aVHome Cleaning
p139
aVMedical Centers
p140
aVPilates
p141
aVHypnosis/Hypnotherapy
p142
aVVietnamese
p143
aVPersonal Injury Law
p144
aVVideo Game Stores
p145
aVOfficiants
p146
aVSmog Check Stations
p147
aVHome Services
p148
aVEyewear & Opticians
p149
aVAustralian
p150
aVPizza
p151
aVVenezuelan
p152
aVGastroenterologist
p153
aVMarketing
p154
aVKeys & Locksmiths
p155
aVDoulas
p156
aVCountry Dance Halls
p157
aVOffice Cleaning
p158
aVBlow Dry/Out Services
p159
aVTest Preparation
p160
aVFood Court
p161
aVFurniture Reupholstery
p162
aVPsychiatrists
p163
aVArchery
p164
aVBeer Garden
p165
aVRV Parks
p166
aVWeb Design
p167
aVSeafood
p168
aVBritish
p169
aVGeneral Litigation
p170
aVClowns
p171
aVProfessional Sports Teams
p172
aVChallenge Courses
p173
aVScreen Printing
p174
aVBeer Gardens
p175
aVBail Bondsmen
p176
aVBaden
p177
aVJapanese
p178
aVBooks, Mags, Music & Video
p179
aVLice Services
p180
aVHot Dogs
p181
aVMassage Therapy
p182
aVFestivals
p183
aVSalvadoran
p184
aVDrywall Installation & Repair
p185
aVMusical Instruments & Teachers
p186
aVPodiatrists
p187
aVOriental
p188
aVSandwiches
p189
aVSwiss Food
p190
aVCoffeeshops
p191
aVVideo/Film Production
p192
aVDance Studios
p193
aVEastern German
p194
aVChiropractors
p195
aVShades & Blinds
p196
aVDim Sum
p197
aVFitness & Instruction
p198
aVSummer Camps
p199
aVRV Dealers
p200
aVEar Nose & Throat
p201
aVPediatric Dentists
p202
aVMen's Clothing
p203
aVBistros
p204
aVMusic & DVDs
p205
aVDiagnostic Imaging
p206
aVBasketball Courts
p207
aVBike Sharing
p208
aVGas & Service Stations
p209
aVPatisserie/Cake Shop
p210
aVNightlife
p211
aVAuto Loan Providers
p212
aVCocktail Bars
p213
aVPet Training
p214
aVDive Bars
p215
aVPlaygrounds
p216
aVMortgage Brokers
p217
aVTelevision Stations
p218
aVPressure Washers
p219
aVBatting Cages
p220
aVOncologist
p221
aVHats
p222
aVWeight Loss Centers
p223
aVAccessories
p224
aVSignmaking
p225
aVActive Life
p226
aVDisc Golf
p227
aVHotels & Travel
p228
aVScottish
p229
aVMusic Venues
p230
aVHospitals
p231
aVFabric Stores
p232
aVWindow Washing
p233
aVBubble Tea
p234
aVBeauty & Spas
p235
aVPrivate Tutors
p236
aVAcupuncture
p237
aVAirport Lounges
p238
aVWok
p239
aVDamage Restoration
p240
aVGuest Houses
p241
aVDistilleries
p242
aVHair Salons
p243
aVCar Wash
p244
aVLawyers
p245
aVOutdoor Gear
p246
aVCoffee & Tea
p247
aVPolice Departments
p248
aVCheesesteaks
p249
aVLakes
p250
aVKids Activities
p251
aVEstate Planning Law
p252
aVOccupational Therapy
p253
aVPublic Transportation
p254
aVSzechuan
p255
aVContractors
p256
aVMidwives
p257
aVHearing Aid Providers
p258
aVCambodian
p259
aVAmateur Sports Teams
p260
aVBody Shops
p261
aVCuban
p262
aVDog Walkers
p263
aVDance Schools
p264
aVAuction Houses
p265
aVCSA
p266
aVAppliances & Repair
p267
aVMuseums
p268
aVBurgers
p269
aVOrthopedists
p270
aVLingerie
p271
aVPrivate Investigation
p272
aVSolar Installation
p273
aVEmployment Agencies
p274
aVBusiness Law
p275
aVDiscount Store
p276
aVUniforms
p277
aVShaved Ice
p278
aVFurniture Repair
p279
aVBavarian
p280
aVPool Halls
p281
aVComputers
p282
aVTex-Mex
p283
aVRafting/Kayaking
p284
aVElectricians
p285
aVReal Estate
p286
aVHospice
p287
aVDiving
p288
aVProfessional Services
p289
aVScuba Diving
p290
aVPerforming Arts
p291
aVCupcakes
p292
aVSports Medicine
p293
aVOffice Equipment
p294
aVSwimwear
p295
aVTrainers
p296
aVFood Tours
p297
aVIndian
p298
aVGolf Equipment
p299
aVFireplace Services
p300
aVBarbeque
p301
aVRecreation Centers
p302
aVCoffee & Tea Supplies
p303
aVNurseries & Gardening
p304
aVTransportation
p305
aVHome Theatre Installation
p306
aVFireworks
p307
aVRetirement Homes
p308
aVAdult
p309
aVNaturopathic/Holistic
p310
aVBoot Camps
p311
aVTax Services
p312
aVCounseling & Mental Health
p313
aVCosmetology Schools
p314
aVSugaring
p315
aVParty & Event Planning
p316
aVFirst Aid Classes
p317
aVWaxing
p318
aVArt Schools
p319
aVPrinting Services
p320
aVSkate Parks
p321
aVBookstores
p322
aVPlumbing
p323
aVTaxis
p324
aVBartenders
p325
aVGarage Door Services
p326
aVApartments
p327
aVLaser Tag
p328
aVFire Protection Services
p329
aVPeruvian
p330
aVHome Inspectors
p331
aVOutlet Stores
p332
aVVape Shops
p333
aVMartial Arts
p334
aVTelevision Service Providers
p335
aVTrampoline Parks
p336
aVKnitting Supplies
p337
aVAquariums
p338
aVChampagne Bars
p339
aVSoccer
p340
aVPiano Bars
p341
aVReligious Schools
p342
aVFurniture Stores
p343
aVEgyptian
p344
aVFood
p345
aVHeating & Air Conditioning/HVAC
p346
aVTrinidadian
p347
aVEmbroidery & Crochet
p348
aVPhotographers
p349
aVMaternity Wear
p350
aVTree Services
p351
aVBoat Repair
p352
aVLife Coach
p353
aVPrint Media
p354
aVMoroccan
p355
aVVenues & Event Spaces
p356
aVSurfing
p357
aVEthnic Food
p358
aVJazz & Blues
p359
aVDay Spas
p360
aVPub Food
p361
aVLocal Services
p362
aVTutoring Centers
p363
aVReflexology
p364
aVAdvertising
p365
aVCriminal Defense Law
p366
aVNeurologist
p367
aVBaby Gear & Furniture
p368
aVAllergists
p369
aVPest Control
p370
aVComfort Food
p371
aVSurf Shop
p372
aVSpecial Education
p373
aVChocolatiers & Shops
p374
aVDelicatessen
p375
aVBespoke Clothing
p376
aVCheese Shops
p377
aVAuto Detailing
p378
aVRV Rental
p379
aVGymnastics
p380
aVFishing
p381
aVLanguage Schools
p382
aVCafeteria
p383
aVHealth Retreats
p384
aVSpeech Therapists
p385
aVIT Services & Computer Repair
p386
aVTanning Beds
p387
aVGluten-Free
p388
aVPowder Coating
p389
aVHome Window Tinting
p390
aVMusicians
p391
aVMotorcycle Gear
p392
aVSushi Bars
p393
aVSeptic Services
p394
aVTea Rooms
p395
aVNanny Services
p396
aVVideos & Video Game Rental
p397
aVFace Painting
p398
aVNewspapers & Magazines
p399
aVPermanent Makeup
p400
aVUsed Bookstore
p401
aVCosmetics & Beauty Supply
p402
aVSaunas
p403
aVHair Extensions
p404
aVSession Photography
p405
aVEducational Services
p406
aVMovers
p407
aVBarbers
p408
aVArts & Entertainment
p409
aVScreen Printing/T-Shirt Printing
p410
aVFood Delivery Services
p411
aVVideographers
p412
aVSporting Goods
p413
aVAmusement Parks
p414
aVDoor Sales/Installation
p415
aVSpray Tanning
p416
aVSpecialty Schools
p417
aVFertility
p418
aVItalian
p419
aVPersonal Assistants
p420
aVSecurity Services
p421
aVMetal Fabricators
p422
aVSynagogues
p423
aVMediterranean
p424
aVDepartment Stores
p425
aVMotorcycle Dealers
p426
aVSelf Storage
p427
aVFalafel
p428
aVAustrian
p429
aVMotorcycle Rental
p430
aVEducation
p431
aVRecycling Center
p432
aVInternet Cafes
p433
aVPersonal Chefs
p434
aVIrish Pub
p435
aVCaribbean
p436
aVDance Clubs
p437
aVAmerican (New)
p438
aVInvesting
p439
aVCaterers
p440
aVAirport Shuttles
p441
aVBreakfast & Brunch
p442
aVRadio Stations
p443
aVOil Change Stations
p444
aVCajun/Creole
p445
aVDo-It-Yourself Food
p446
aVComic Books
p447
aVJunk Removal & Hauling
p448
aVMassage Schools
p449
aVIndonesian
p450
aVShopping
p451
aVHawaiian
p452
aVIzakaya
p453
aVValet Services
p454
aVUtilities
p455
aVIberian
p456
aVArgentine
p457
aVHandyman
p458
aVCollege Counseling
p459
aVThai
p460
aVFish & Chips
p461
aVPulmonologist
p462
aVHigh Fidelity Audio Equipment
p463
aVSkin Care
p464
aVUzbek
p465
aVFood Banks
p466
aVPublic Plazas
p467
aVBurmese
p468
aVFarmers Market
p469
aVAfrican
p470
aVMagicians
p471
aVBeer Bar
p472
aVSingaporean
p473
aVCinema
p474
aVAsian Fusion
p475
aVMattresses
p476
aVArts & Crafts
p477
aVGutter Services
p478
aVPortuguese
p479
aVTours
p480
aVFences & Gates
p481
aVGun/Rifle Ranges
p482
aVPool Cleaners
p483
aVMakeup Artists
p484
aVCommercial Real Estate
p485
aVTurkish
p486
aVLaser Hair Removal
p487
aVLive/Raw Food
p488
aVBangladeshi
p489
aVPet Groomers
p490
aVGay Bars
p491
aVPreschools
p492
aVHome Organization
p493
aVInternet Service Providers
p494
aVGuns & Ammo
p495
aVSouthern
p496
aVSewing & Alterations
p497
aVRegistration Services
p498
aVPediatricians
p499
aVReligious Organizations
p500
aVDoctors
p501
aVFlowers
p502
aVCooking Schools
p503
aVOsteopathic Physicians
p504
aVUsed, Vintage & Consignment
p505
aVPiano Services
p506
aVPhysical Therapy
p507
aVUniversity Housing
p508
aVLeisure Centers
p509
aVMobile Phone Repair
p510
aVHot Pot
p511
aVPost Offices
p512
aVCasinos
p513
aVHot Tub & Pool
p514
aVPawn Shops
p515
aVParty Bus Rentals
p516
aVHostels
p517
aVCastles
p518
aVCards & Stationery
p519
aVIrrigation
p520
aVStadiums & Arenas
p521
aVKebab
p522
aVVinyl Records
p523
aVBotanical Gardens
p524
aVKaraoke
p525
aVTires
p526
aVLatin American
p527
aVProperty Management
p528
aVWalking Tours
p529
aVWine Bars
p530
aVHotels
p531
aVGolf Equipment Shops
p532
aVShipping Centers
p533
aVDonuts
p534
aVBagels
p535
aVFirewood
p536
aVSocial Clubs
p537
aVLibraries
p538
aVBuddhist Temples
p539
aVArt Classes
p540
aVBridal
p541
aVVacation Rentals
p542
aVWalk-in Clinics
p543
aVDominican
p544
aVSalad
p545
aVBoat Charters
p546
aVBeer, Wine & Spirits
p547
aVHimalayan/Nepalese
p548
aVRV Repair
p549
aVAccountants
p550
aVFinancial Advising
p551
aVRadiologists
p552
aVCareer Counseling
p553
aVLocal Flavor
p554
aVHome Health Care
p555
aVShutters
p556
aVJewelry Repair
p557
aVLebanese
p558
aVSwimming Lessons/Schools
p559
aVTai Chi
p560
aVCycling Classes
p561
aVLuggage
p562
aVFlowers & Gifts
p563
aVSoup
p564
aVCar Rental
p565
aVHair Stylists
p566
aVWedding Planning
p567
aVAppliances
p568
aVAuto Customization
p569
aVBuses
p570
aVAmerican (Traditional)
p571
aVBarre Classes
p572
aVUkrainian
p573
aVTalent Agencies
p574
aVMobile Phones
p575
aVRheumatologists
p576
aVMotorcycle Repair
p577
aVOrthotics
p578
aVRugs
p579
aVHorse Boarding
p580
aVChimney Sweeps
p581
aVNotaries
p582
aVStreet Vendors
p583
aVTapas/Small Plates
p584
aVFondue
p585
aVWholesale Stores
p586
aVArabian
p587
aVPets
p588
aVChurches
p589
aVWigs
p590
aVBelgian
p591
aVRoofing
p592
aVPropane
p593
aVSkating Rinks
p594
aVDay Camps
p595
aVPasta Shops
p596
aVReiki
p597
aVMiddle Schools & High Schools
p598
aVParty Supplies
p599
aVShared Office Spaces
p600
aVFilipino
p601
aVToy Stores
p602
aVMassage
p603
aVShoe Stores
p604
aVBrewing Supplies
p605
aVData Recovery
p606
aVEthnic Grocery
p607
aVDermatologists
p608
aVImmigration Law
p609
aVGlass & Mirrors
p610
aVLeather Goods
p611
aVSteakhouses
p612
aVFashion
p613
aVThrift Stores
p614
aVRecording & Rehearsal Studios
p615
aVGelato
p616
aVBeverage Store
p617
aVWine Tours
p618
aVPublic Services & Government
p619
aVDesserts
p620
aVBeaches
p621
aVInsulation Installation
p622
aVMeditation Centers
p623
aVPolish
p624
aVMosques
p625
aVEvent Planning & Services
p626
aVObstetricians & Gynecologists
p627
aVJewelry
p628
aVHome & Garden
p629
aVEndocrinologists
p630
aVVacation Rental Agents
p631
aVPharmacy
p632
aVFruits & Veggies
p633
aVMatchmakers
p634
aVWatches
p635
aVCarpeting
p636
aVInternational
p637
aVBanks & Credit Unions
p638
aVAuto Glass Services
p639
aVLaboratory Testing
p640
aVDentists
p641
aVChristmas Markets
p642
aVTrain Stations
p643
aVFamily Practice
p644
aVEthiopian
p645
aVCarpet Installation
p646
aVGo Karts
p647
aVBike Rentals
p648
aVEastern European
p649
aVGift Shops
p650
aVResorts
p651
aVWomen's Clothing
p652
aVProsthetics
p653
aVPlus Size Fashion
p654
aVWineries
p655
aVLighting Fixtures & Equipment
p656
aVKitchen & Bath
p657
aVHindu Temples
p658
aVWheel & Rim Repair
p659
aVIce Cream & Frozen Yogurt
p660
aVEyelash Service
p661
aVBars
p662
aVPayroll Services
p663
aVCabinetry
p664
aVPeriodontists
p665
aVPop-up Shops
p666
aVVeterinarians
p667
aVHealth Markets
p668
aVEvent Photography
p669
aVCosmetic Dentists
p670
aVShredding Services
p671
aVTattoo
p672
aVElectronics Repair
p673
aVAdult Entertainment
p674
aVCarpet Cleaning
p675
aVBoat Dealers
p676
aVWater Delivery
p677
aVCourthouses
p678
aVRace Tracks
p679
aVReal Estate Services
p680
aVPet Services
p681
aVKorean
p682
aVPakistani
p683
aVTattoo Removal
p684
aVTrophy Shops
p685
aVConvenience Stores
p686
aVPet Stores
p687
aVCheck Cashing/Pay-day Loans
p688
aVSecurity Systems
p689
aVBrasseries
p690
aVCultural Center
p691
aVHorse Racing
p692
aVVegan
p693
aVPubs
p694
aVLandscaping
p695
aVMini Golf
p696
aVFraming
p697
aVGastropubs
p698
aVCar Stereo Installation
p699
aVBakeries
p700
aVCooking Classes
p701
aVHot Air Balloons
p702
aVYelp Events
p703
aVAquarium Services
p704
aVGeneral Dentistry
p705
aVSwimming Pools
p706
aVCardiologists
p707
aVBreweries
p708
aVMalaysian
p709
aVRefinishing Services
p710
aVFuneral Services & Cemeteries
p711
aVGraphic Design
p712
aVModern European
p713
aVPhotography Stores & Services
p714
aVButcher
p715
aVParty Equipment Rentals
p716
aVUrgent Care
p717
aVPoutineries
p718
aVPsychics & Astrologers
p719
aVDUI Law
p720
aVIrish
p721
aVGolf
p722
aVCzech
p723
aVRamen
p724
aVColleges & Universities
p725
aVRolfing
p726
aVRehabilitation Center
p727
aVCannabis Clinics
p728
aVReal Estate Agents
p729
aVHorseback Riding
p730
aVAuto Repair
p731
aVParking
p732
aVFlight Instruction
p733
aVRock Climbing
p734
aVHang Gliding
p735
aVWindshield Installation & Repair
p736
aVInsurance
p737
aVSports Wear
p738
aVPsychologists
p739
aVFlooring
p740
aVArt Supplies
p741
aVOpera & Ballet
p742
aVSurgeons
p743
aVAirlines
p744
aVParks
p745
aVMedical Spas
p746
aVCPR Classes
p747
aVFast Food
p748
aVElectronics
p749
aVLactation Services
p750
aVColombian
p751
aVBike Repair/Maintenance
p752
aVMedical Supplies
p753
aVPersonal Shopping
p754
aVSports Clubs
p755
aVDepartments of Motor Vehicles
p756
aVChildren's Clothing
p757
aVStreet Art
p758
aVSerbo Croatian
p759
aVGardeners
p760
aVDriving Schools
p761
aVHome Staging
p762
aVFinancial Services
p763
aVBoxing
p764
aVMusical Instrument Services
p765
aVBed & Breakfast
p766
aVEmployment Law
p767
aVFlorists
p768
aVOral Surgeons
p769
aVWindows Installation
p770
aVComedy Clubs
p771
aVMailbox Centers
p772
aVInternal Medicine
p773
aVMexican
p774
aVCar Dealers
p775
aVTicket Sales
p776
aVMedical Transportation
p777
aVMeat Shops
p778
aVTraditional Chinese Medicine
p779
aVSoul Food
p780
aVSpecialty Food
p781
aVSpanish
p782
aVCabaret
p783
aVArcades
p784
a.