(dp1
I3
I9410
sI4
I6657
sI5
I5104
sI6
I3938
sI7
I3188
sI8
I2596
sI9
I2255
sI10
I1891
sI11
I1636
sI12
I1403
sI13
I1230
sI14
I1159
sI15
I1038
sI16
I926
sI17
I854
sI18
I842
sI19
I674
sI20
I622
sI21
I559
sI22
I559
sI23
I504
sI24
I500
sI25
I461
sI26
I409
sI27
I390
sI28
I373
sI29
I358
sI30
I335
sI31
I315
sI32
I294
sI33
I274
sI34
I240
sI35
I252
sI36
I246
sI37
I240
sI38
I208
sI39
I207
sI40
I212
sI41
I193
sI42
I179
sI43
I182
sI44
I185
sI45
I183
sI46
I174
sI47
I156
sI48
I151
sI49
I146
sI50
I142
sI51
I152
sI52
I153
sI53
I139
sI54
I114
sI55
I117
sI56
I117
sI57
I117
sI58
I132
sI59
I126
sI60
I114
sI61
I81
sI62
I121
sI63
I98
sI64
I97
sI65
I91
sI66
I88
sI67
I85
sI68
I86
sI69
I78
sI70
I82
sI71
I61
sI72
I68
sI73
I96
sI74
I62
sI75
I61
sI76
I66
sI77
I71
sI78
I61
sI79
I60
sI80
I69
sI81
I51
sI82
I51
sI83
I72
sI84
I59
sI85
I52
sI86
I49
sI87
I55
sI88
I47
sI89
I51
sI90
I46
sI91
I45
sI92
I53
sI93
I67
sI94
I47
sI95
I37
sI96
I35
sI97
I43
sI98
I26
sI99
I43
sI100
I36
sI101
I41
sI102
I29
sI103
I48
sI104
I25
sI105
I34
sI106
I44
sI107
I35
sI108
I38
sI109
I41
sI110
I30
sI111
I36
sI112
I29
sI113
I26
sI114
I43
sI115
I41
sI116
I25
sI117
I23
sI118
I27
sI119
I32
sI120
I22
sI121
I29
sI122
I24
sI123
I34
sI124
I19
sI125
I21
sI126
I20
sI127
I27
sI128
I18
sI129
I21
sI130
I25
sI131
I25
sI132
I28
sI133
I23
sI134
I21
sI135
I21
sI136
I23
sI137
I21
sI138
I22
sI139
I30
sI140
I28
sI141
I18
sI142
I22
sI143
I19
sI144
I28
sI145
I28
sI146
I21
sI147
I20
sI148
I20
sI149
I19
sI150
I21
sI151
I19
sI152
I14
sI153
I16
sI154
I17
sI155
I20
sI156
I15
sI157
I20
sI158
I17
sI159
I13
sI160
I17
sI161
I15
sI162
I21
sI163
I15
sI164
I15
sI165
I12
sI166
I8
sI167
I20
sI168
I13
sI169
I15
sI170
I18
sI171
I11
sI172
I13
sI173
I15
sI174
I14
sI175
I15
sI176
I13
sI177
I14
sI178
I13
sI179
I15
sI180
I9
sI181
I9
sI182
I7
sI183
I8
sI184
I12
sI185
I13
sI186
I7
sI2079
I1
sI188
I7
sI189
I9
sI190
I14
sI191
I10
sI192
I18
sI193
I8
sI194
I8
sI195
I14
sI196
I10
sI197
I18
sI198
I9
sI199
I11
sI200
I14
sI201
I13
sI202
I5
sI203
I5
sI204
I15
sI205
I8
sI206
I6
sI207
I9
sI208
I13
sI209
I12
sI210
I8
sI211
I11
sI212
I12
sI213
I5
sI214
I12
sI215
I8
sI216
I6
sI217
I6
sI218
I7
sI219
I7
sI220
I6
sI221
I11
sI222
I4
sI223
I5
sI224
I11
sI225
I8
sI226
I11
sI227
I8
sI228
I2
sI229
I6
sI230
I3
sI231
I7
sI232
I7
sI233
I4
sI234
I6
sI235
I5
sI236
I6
sI237
I11
sI238
I5
sI239
I6
sI240
I5
sI241
I6
sI242
I9
sI243
I4
sI244
I4
sI245
I8
sI246
I8
sI247
I9
sI248
I8
sI249
I6
sI250
I3
sI251
I1
sI252
I5
sI253
I3
sI2302
I1
sI255
I1
sI256
I5
sI257
I4
sI258
I5
sI259
I2
sI260
I2
sI261
I9
sI262
I5
sI263
I9
sI264
I6
sI265
I4
sI266
I5
sI267
I1
sI268
I3
sI269
I8
sI270
I2
sI271
I8
sI272
I10
sI273
I6
sI274
I5
sI275
I3
sI276
I2
sI277
I6
sI278
I2
sI279
I4
sI280
I4
sI281
I1
sI282
I2
sI283
I3
sI284
I8
sI285
I6
sI286
I7
sI287
I4
sI288
I8
sI289
I7
sI290
I2
sI291
I5
sI292
I2
sI293
I3
sI294
I10
sI295
I4
sI296
I2
sI297
I6
sI298
I4
sI299
I6
sI300
I1
sI301
I4
sI302
I6
sI303
I2
sI304
I4
sI305
I2
sI306
I4
sI307
I1
sI308
I2
sI309
I6
sI310
I1
sI311
I2
sI312
I2
sI314
I6
sI315
I5
sI316
I7
sI317
I4
sI318
I2
sI319
I4
sI320
I2
sI321
I6
sI322
I5
sI323
I8
sI324
I7
sI325
I4
sI326
I8
sI327
I2
sI328
I3
sI329
I8
sI330
I2
sI331
I1
sI332
I3
sI333
I4
sI334
I2
sI335
I6
sI336
I1
sI337
I2
sI338
I3
sI339
I3
sI340
I5
sI341
I4
sI342
I2
sI343
I3
sI344
I3
sI345
I2
sI346
I2
sI2395
I1
sI348
I4
sI349
I3
sI350
I3
sI351
I2
sI352
I3
sI353
I6
sI355
I2
sI356
I1
sI357
I2
sI358
I3
sI359
I3
sI360
I1
sI361
I2
sI362
I2
sI363
I5
sI364
I3
sI365
I2
sI366
I2
sI367
I2
sI368
I2
sI369
I1
sI371
I2
sI372
I3
sI373
I2
sI374
I2
sI375
I1
sI376
I2
sI377
I3
sI379
I1
sI380
I2
sI381
I1
sI382
I3
sI383
I3
sI384
I2
sI386
I1
sI388
I1
sI389
I1
sI390
I1
sI391
I2
sI2440
I1
sI393
I2
sI394
I1
sI395
I2
sI396
I5
sI397
I2
sI398
I1
sI399
I4
sI400
I1
sI401
I2
sI402
I2
sI403
I1
sI405
I4
sI407
I2
sI408
I3
sI409
I1
sI411
I1
sI413
I2
sI414
I1
sI415
I1
sI416
I2
sI417
I1
sI419
I1
sI420
I4
sI421
I2
sI422
I2
sI424
I3
sI425
I3
sI426
I1
sI427
I1
sI428
I1
sI429
I2
sI430
I1
sI431
I1
sI433
I3
sI434
I2
sI435
I1
sI436
I1
sI437
I1
sI438
I1
sI440
I1
sI441
I3
sI443
I3
sI444
I2
sI445
I2
sI446
I2
sI448
I1
sI449
I2
sI450
I1
sI452
I1
sI453
I1
sI455
I2
sI459
I4
sI460
I5
sI461
I1
sI462
I1
sI464
I2
sI465
I1
sI466
I2
sI467
I1
sI468
I2
sI469
I3
sI470
I1
sI471
I1
sI474
I2
sI2127
I1
sI476
I3
sI480
I2
sI481
I2
sI4578
I1
sI484
I3
sI485
I4
sI487
I2
sI2537
I1
sI491
I1
sI492
I2
sI493
I2
sI495
I1
sI496
I1
sI497
I2
sI498
I1
sI500
I1
sI501
I1
sI504
I3
sI508
I2
sI510
I1
sI511
I1
sI512
I1
sI514
I1
sI515
I1
sI516
I1
sI518
I3
sI520
I1
sI521
I1
sI523
I1
sI524
I2
sI525
I2
sI527
I2
sI532
I1
sI534
I1
sI2583
I1
sI537
I1
sI538
I1
sI539
I1
sI543
I1
sI2593
I1
sI546
I1
sI548
I2
sI549
I1
sI550
I1
sI553
I1
sI554
I3
sI2063
I1
sI557
I1
sI560
I1
sI561
I1
sI563
I1
sI565
I1
sI566
I2
sI569
I1
sI2143
I1
sI573
I1
sI577
I1
sI578
I1
sI580
I2
sI581
I1
sI583
I1
sI586
I1
sI589
I1
sI594
I1
sI597
I3
sI603
I4
sI605
I1
sI606
I1
sI607
I1
sI608
I1
sI611
I1
sI617
I1
sI618
I1
sI620
I1
sI623
I1
sI627
I1
sI630
I2
sI632
I2
sI634
I1
sI642
I1
sI646
I1
sI647
I1
sI648
I1
sI649
I2
sI650
I1
sI653
I1
sI655
I1
sI657
I1
sI659
I1
sI662
I1
sI663
I1
sI668
I1
sI670
I1
sI672
I1
sI678
I1
sI679
I2
sI685
I1
sI693
I1
sI695
I1
sI696
I1
sI700
I2
sI702
I2
sI703
I1
sI704
I1
sI705
I1
sI709
I1
sI714
I1
sI715
I1
sI720
I1
sI721
I1
sI723
I1
sI725
I1
sI728
I1
sI729
I2
sI730
I1
sI732
I1
sI735
I1
sI736
I1
sI738
I1
sI739
I1
sI741
I1
sI744
I2
sI745
I1
sI746
I1
sI750
I2
sI751
I1
sI756
I1
sI762
I1
sI769
I1
sI770
I2
sI772
I1
sI780
I1
sI791
I1
sI792
I1
sI795
I1
sI475
I2
sI804
I1
sI805
I1
sI811
I2
sI814
I1
sI818
I1
sI819
I1
sI820
I1
sI825
I1
sI827
I1
sI835
I2
sI482
I2
sI846
I1
sI847
I1
sI850
I2
sI851
I1
sI858
I1
sI861
I1
sI872
I1
sI873
I1
sI878
I1
sI885
I2
sI886
I1
sI489
I2
sI888
I1
sI892
I1
sI900
I2
sI2949
I1
sI902
I1
sI908
I2
sI2201
I1
sI924
I1
sI929
I1
sI347
I1
sI933
I1
sI938
I1
sI945
I1
sI956
I1
sI3007
I1
sI971
I1
sI983
I1
sI985
I1
sI989
I2
sI990
I1
sI994
I1
sI995
I1
sI3046
I1
sI1000
I1
sI1013
I1
sI1022
I1
sI1023
I1
sI1033
I1
sI1037
I1
sI1052
I1
sI1055
I1
sI1063
I1
sI1065
I1
sI1069
I1
sI1071
I1
sI1080
I1
sI1086
I1
sI1106
I1
sI1117
I1
sI187
I9
sI1124
I1
sI1125
I1
sI1126
I1
sI1142
I1
sI1163
I1
sI1172
I1
sI1176
I1
sI1223
I1
sI1202
I1
sI1211
I1
sI545
I1
sI1229
I1
sI1241
I1
sI1264
I1
sI1270
I1
sI1282
I1
sI1295
I1
sI1323
I1
sI1336
I1
sI1352
I1
sI1368
I1
sI571
I1
sI1394
I1
sI1397
I1
sI1424
I1
sI1428
I2
sI1436
I1
sI1453
I1
sI1469
I1
sI1507
I1
sI1512
I1
sI1514
I1
sI254
I4
sI1530
I1
sI1531
I1
sI1537
I1
sI392
I1
sI1542
I1
sI1645
I1
sI2510
I1
sI1661
I1
sI1701
I1
sI1710
I1
sI1714
I1
sI535
I1
sI1757
I1
sI3828
I1
sI2105
I1
sI1872
I1
sI1930
I1
sI2110
I1
sI3984
I1
sI2051
I1
sI1986
I1
s.