(dp1
I0
I7
sI1
I57072
sI2
I42618
sI3
I30300
sI4
I22592
sI5
I17917
sI6
I14894
sI7
I12703
sI8
I10664
sI9
I9142
sI10
I7924
sI11
I6998
sI12
I6342
sI13
I5570
sI14
I5059
sI15
I4755
sI16
I4256
sI17
I3963
sI18
I3594
sI19
I3291
sI20
I3170
sI21
I2858
sI22
I2783
sI23
I2507
sI24
I2328
sI25
I2246
sI26
I2092
sI27
I1973
sI28
I2010
sI29
I1796
sI30
I1742
sI31
I1557
sI32
I1556
sI33
I1489
sI34
I1428
sI35
I1373
sI36
I1336
sI37
I1190
sI38
I1177
sI39
I1144
sI40
I1120
sI41
I1010
sI42
I1005
sI43
I947
sI44
I964
sI45
I887
sI46
I848
sI47
I843
sI48
I797
sI49
I773
sI50
I789
sI51
I754
sI52
I692
sI53
I736
sI54
I660
sI55
I653
sI56
I619
sI57
I584
sI58
I632
sI59
I570
sI60
I603
sI61
I548
sI62
I534
sI63
I512
sI64
I479
sI65
I479
sI66
I499
sI67
I466
sI68
I477
sI69
I443
sI70
I400
sI71
I415
sI72
I435
sI73
I390
sI74
I427
sI75
I406
sI76
I417
sI77
I417
sI78
I380
sI79
I347
sI80
I359
sI81
I355
sI82
I359
sI83
I328
sI84
I359
sI85
I335
sI86
I311
sI87
I304
sI88
I348
sI89
I325
sI90
I305
sI91
I298
sI92
I276
sI93
I289
sI94
I286
sI95
I271
sI96
I267
sI97
I273
sI98
I256
sI99
I246
sI100
I257
sI101
I247
sI102
I285
sI103
I261
sI104
I249
sI105
I263
sI106
I261
sI107
I240
sI108
I214
sI109
I237
sI110
I236
sI111
I257
sI112
I218
sI113
I229
sI114
I211
sI115
I218
sI116
I202
sI117
I206
sI118
I201
sI119
I187
sI120
I206
sI121
I178
sI122
I217
sI123
I196
sI124
I201
sI125
I169
sI126
I176
sI127
I199
sI128
I180
sI129
I179
sI130
I171
sI131
I182
sI132
I162
sI133
I154
sI134
I175
sI135
I177
sI136
I137
sI137
I153
sI138
I174
sI139
I145
sI140
I174
sI141
I149
sI142
I143
sI143
I147
sI144
I168
sI145
I147
sI146
I138
sI147
I139
sI148
I166
sI149
I140
sI150
I132
sI151
I145
sI152
I144
sI153
I144
sI154
I118
sI155
I140
sI156
I136
sI157
I118
sI158
I147
sI159
I120
sI160
I135
sI161
I132
sI162
I132
sI163
I120
sI164
I123
sI165
I128
sI166
I122
sI167
I102
sI168
I127
sI169
I108
sI170
I108
sI171
I120
sI172
I94
sI173
I118
sI174
I117
sI175
I125
sI176
I92
sI177
I125
sI178
I91
sI179
I95
sI180
I98
sI181
I111
sI182
I89
sI183
I98
sI184
I105
sI185
I106
sI186
I109
sI187
I106
sI188
I97
sI189
I85
sI190
I80
sI191
I89
sI192
I105
sI193
I74
sI194
I91
sI195
I79
sI196
I94
sI197
I84
sI198
I80
sI199
I101
sI200
I91
sI201
I79
sI202
I83
sI203
I72
sI204
I88
sI205
I79
sI206
I88
sI207
I95
sI208
I82
sI209
I81
sI210
I89
sI211
I86
sI212
I55
sI213
I84
sI214
I90
sI215
I81
sI216
I77
sI217
I67
sI218
I84
sI219
I67
sI220
I70
sI221
I68
sI222
I86
sI223
I63
sI224
I76
sI225
I73
sI226
I61
sI227
I67
sI228
I85
sI229
I51
sI230
I66
sI231
I70
sI232
I72
sI233
I62
sI234
I50
sI235
I50
sI236
I53
sI237
I60
sI238
I55
sI239
I58
sI240
I60
sI241
I77
sI242
I64
sI243
I66
sI244
I59
sI245
I54
sI246
I52
sI247
I57
sI248
I55
sI249
I59
sI250
I58
sI251
I63
sI252
I60
sI253
I65
sI254
I73
sI255
I55
sI256
I48
sI257
I60
sI258
I63
sI259
I62
sI260
I51
sI261
I58
sI262
I55
sI263
I58
sI264
I48
sI265
I53
sI266
I38
sI267
I52
sI268
I52
sI269
I42
sI270
I64
sI271
I32
sI272
I43
sI273
I34
sI274
I48
sI275
I48
sI276
I53
sI277
I51
sI278
I55
sI279
I39
sI280
I46
sI281
I35
sI282
I40
sI283
I38
sI284
I33
sI285
I49
sI286
I47
sI287
I45
sI288
I36
sI289
I36
sI290
I38
sI291
I46
sI292
I33
sI293
I40
sI294
I34
sI295
I43
sI296
I40
sI297
I36
sI298
I35
sI299
I42
sI300
I47
sI301
I36
sI302
I33
sI303
I31
sI304
I40
sI305
I48
sI306
I39
sI307
I45
sI308
I44
sI309
I37
sI310
I33
sI311
I39
sI312
I38
sI313
I39
sI314
I42
sI315
I30
sI316
I26
sI317
I32
sI318
I31
sI319
I42
sI320
I38
sI321
I25
sI322
I26
sI323
I35
sI324
I44
sI325
I36
sI326
I26
sI327
I28
sI328
I31
sI329
I42
sI330
I38
sI331
I28
sI332
I30
sI333
I22
sI334
I31
sI2383
I1
sI336
I37
sI337
I30
sI338
I22
sI339
I24
sI340
I31
sI341
I33
sI342
I26
sI343
I35
sI344
I23
sI345
I30
sI346
I26
sI347
I28
sI348
I29
sI349
I22
sI350
I24
sI351
I28
sI352
I32
sI353
I25
sI354
I32
sI355
I32
sI356
I23
sI357
I25
sI358
I27
sI359
I27
sI360
I23
sI361
I22
sI362
I27
sI363
I32
sI364
I34
sI365
I33
sI366
I21
sI367
I13
sI368
I20
sI369
I20
sI370
I28
sI371
I23
sI372
I24
sI373
I25
sI374
I21
sI375
I23
sI376
I28
sI377
I21
sI378
I29
sI379
I34
sI380
I21
sI381
I21
sI382
I25
sI383
I23
sI384
I21
sI385
I21
sI386
I17
sI387
I19
sI388
I22
sI389
I27
sI390
I22
sI391
I21
sI392
I15
sI393
I17
sI394
I17
sI395
I15
sI396
I18
sI397
I19
sI398
I19
sI399
I19
sI400
I24
sI401
I26
sI402
I17
sI403
I16
sI404
I21
sI405
I24
sI406
I17
sI407
I17
sI408
I14
sI409
I22
sI410
I24
sI411
I30
sI412
I18
sI413
I20
sI414
I19
sI415
I19
sI416
I20
sI417
I18
sI418
I15
sI419
I13
sI420
I21
sI421
I22
sI422
I20
sI423
I26
sI424
I11
sI425
I22
sI426
I21
sI427
I18
sI428
I22
sI429
I16
sI430
I21
sI431
I13
sI432
I13
sI433
I11
sI434
I19
sI435
I18
sI436
I9
sI437
I13
sI438
I13
sI439
I16
sI440
I18
sI441
I13
sI442
I19
sI443
I20
sI444
I12
sI445
I18
sI446
I17
sI447
I17
sI448
I17
sI449
I17
sI450
I14
sI451
I19
sI452
I17
sI453
I10
sI454
I14
sI455
I16
sI456
I12
sI457
I10
sI458
I16
sI459
I17
sI460
I16
sI461
I19
sI462
I11
sI463
I19
sI464
I20
sI465
I17
sI466
I17
sI467
I16
sI468
I15
sI469
I12
sI470
I11
sI471
I4
sI472
I15
sI473
I8
sI474
I14
sI475
I11
sI476
I7
sI477
I11
sI478
I11
sI479
I12
sI480
I19
sI481
I13
sI482
I13
sI483
I12
sI484
I8
sI485
I15
sI486
I17
sI487
I15
sI488
I12
sI489
I9
sI490
I17
sI491
I16
sI492
I7
sI493
I10
sI494
I13
sI495
I11
sI496
I13
sI497
I11
sI498
I12
sI499
I13
sI500
I13
sI501
I14
sI502
I11
sI503
I8
sI504
I9
sI505
I13
sI506
I14
sI507
I9
sI508
I18
sI509
I10
sI510
I14
sI511
I9
sI512
I7
sI513
I14
sI514
I11
sI515
I16
sI516
I8
sI517
I8
sI518
I14
sI519
I11
sI520
I8
sI521
I9
sI522
I10
sI523
I6
sI524
I13
sI525
I10
sI526
I10
sI527
I10
sI528
I12
sI529
I4
sI530
I8
sI531
I14
sI532
I5
sI533
I11
sI534
I10
sI535
I6
sI536
I8
sI537
I9
sI538
I11
sI539
I12
sI540
I10
sI541
I13
sI542
I6
sI543
I8
sI544
I9
sI545
I7
sI546
I11
sI547
I12
sI548
I11
sI549
I9
sI550
I9
sI551
I11
sI552
I13
sI553
I12
sI554
I10
sI555
I7
sI556
I8
sI557
I8
sI558
I8
sI559
I7
sI560
I7
sI561
I12
sI562
I8
sI563
I13
sI564
I6
sI565
I6
sI566
I3
sI567
I8
sI568
I8
sI569
I8
sI570
I10
sI571
I16
sI572
I6
sI573
I6
sI574
I5
sI575
I9
sI576
I16
sI577
I3
sI578
I9
sI579
I7
sI580
I9
sI581
I7
sI582
I10
sI583
I6
sI584
I9
sI585
I9
sI586
I8
sI587
I14
sI588
I5
sI589
I7
sI590
I6
sI591
I10
sI592
I5
sI593
I14
sI594
I10
sI595
I6
sI596
I7
sI597
I3
sI598
I8
sI599
I8
sI600
I12
sI601
I5
sI602
I9
sI603
I8
sI604
I8
sI605
I6
sI606
I10
sI607
I6
sI608
I5
sI609
I5
sI610
I6
sI611
I3
sI612
I4
sI613
I6
sI614
I3
sI615
I12
sI616
I5
sI617
I4
sI618
I6
sI619
I5
sI620
I5
sI621
I10
sI622
I9
sI623
I1
sI624
I6
sI625
I4
sI626
I7
sI627
I5
sI628
I9
sI629
I3
sI630
I7
sI631
I2
sI632
I3
sI633
I4
sI634
I7
sI635
I8
sI636
I6
sI637
I6
sI638
I5
sI639
I1
sI640
I3
sI641
I3
sI642
I5
sI643
I6
sI644
I4
sI645
I4
sI646
I6
sI647
I2
sI648
I3
sI649
I3
sI650
I7
sI651
I10
sI652
I7
sI653
I7
sI654
I5
sI655
I6
sI656
I3
sI657
I3
sI658
I8
sI659
I8
sI660
I6
sI662
I10
sI663
I5
sI664
I8
sI665
I7
sI666
I4
sI667
I2
sI668
I2
sI669
I3
sI670
I4
sI671
I5
sI672
I9
sI673
I3
sI674
I2
sI675
I3
sI676
I3
sI677
I3
sI678
I6
sI679
I6
sI680
I6
sI681
I5
sI682
I4
sI683
I4
sI684
I5
sI685
I4
sI686
I4
sI687
I4
sI688
I6
sI689
I5
sI690
I1
sI691
I3
sI692
I4
sI693
I6
sI694
I6
sI695
I3
sI696
I1
sI697
I8
sI698
I7
sI699
I8
sI700
I7
sI701
I3
sI702
I3
sI703
I5
sI704
I1
sI705
I3
sI706
I4
sI707
I4
sI708
I2
sI709
I5
sI710
I4
sI711
I9
sI712
I2
sI713
I7
sI714
I2
sI715
I3
sI716
I5
sI717
I5
sI718
I5
sI719
I4
sI720
I4
sI721
I1
sI722
I5
sI723
I3
sI724
I3
sI725
I4
sI726
I6
sI727
I4
sI728
I3
sI729
I4
sI730
I7
sI731
I1
sI732
I1
sI733
I2
sI734
I4
sI735
I1
sI736
I1
sI737
I2
sI738
I1
sI739
I6
sI740
I7
sI741
I4
sI742
I6
sI743
I2
sI744
I2
sI745
I2
sI746
I3
sI747
I4
sI748
I3
sI749
I1
sI750
I5
sI2173
I1
sI752
I3
sI753
I2
sI754
I8
sI755
I1
sI756
I5
sI758
I2
sI760
I5
sI761
I2
sI762
I3
sI763
I5
sI764
I3
sI765
I2
sI766
I1
sI767
I4
sI768
I3
sI769
I5
sI770
I3
sI771
I5
sI772
I3
sI773
I3
sI774
I4
sI775
I1
sI776
I3
sI778
I2
sI779
I7
sI780
I3
sI781
I1
sI782
I4
sI783
I1
sI784
I2
sI785
I4
sI786
I4
sI788
I2
sI789
I2
sI790
I6
sI791
I3
sI792
I1
sI793
I1
sI794
I5
sI795
I7
sI796
I3
sI797
I7
sI798
I1
sI799
I1
sI800
I3
sI801
I4
sI802
I3
sI803
I3
sI804
I3
sI805
I5
sI806
I3
sI807
I5
sI809
I5
sI810
I6
sI811
I1
sI812
I5
sI813
I1
sI814
I1
sI4573
I1
sI2823
I1
sI817
I2
sI819
I4
sI820
I4
sI821
I5
sI822
I2
sI823
I2
sI824
I4
sI825
I3
sI828
I2
sI829
I3
sI2878
I1
sI831
I3
sI833
I3
sI835
I2
sI836
I2
sI837
I1
sI838
I2
sI839
I1
sI840
I3
sI841
I2
sI843
I2
sI844
I4
sI845
I1
sI846
I2
sI847
I1
sI848
I1
sI849
I2
sI850
I2
sI851
I3
sI852
I2
sI853
I4
sI854
I6
sI855
I1
sI856
I3
sI857
I1
sI858
I2
sI859
I4
sI860
I3
sI861
I1
sI862
I3
sI863
I4
sI864
I2
sI865
I1
sI866
I1
sI867
I2
sI868
I1
sI870
I2
sI871
I5
sI873
I1
sI2484
I1
sI877
I1
sI878
I2
sI879
I1
sI880
I2
sI881
I1
sI882
I3
sI883
I2
sI884
I2
sI830
I3
sI886
I5
sI887
I2
sI889
I2
sI891
I1
sI892
I2
sI893
I3
sI895
I3
sI896
I1
sI897
I2
sI898
I1
sI899
I1
sI900
I1
sI903
I3
sI904
I5
sI905
I5
sI906
I3
sI907
I2
sI908
I1
sI909
I1
sI911
I1
sI912
I3
sI913
I2
sI914
I1
sI915
I1
sI916
I2
sI917
I1
sI918
I1
sI919
I3
sI921
I1
sI923
I1
sI924
I2
sI926
I1
sI927
I2
sI928
I3
sI929
I4
sI930
I2
sI932
I1
sI2886
I1
sI934
I4
sI936
I2
sI937
I3
sI938
I4
sI939
I1
sI2077
I1
sI941
I1
sI942
I1
sI943
I2
sI944
I2
sI946
I1
sI2996
I1
sI949
I1
sI950
I2
sI951
I1
sI952
I1
sI954
I2
sI956
I1
sI957
I2
sI958
I2
sI959
I1
sI960
I1
sI961
I2
sI962
I2
sI963
I1
sI964
I1
sI965
I3
sI966
I1
sI967
I1
sI969
I1
sI971
I1
sI972
I3
sI2210
I1
sI974
I2
sI975
I1
sI976
I2
sI978
I2
sI979
I2
sI980
I1
sI981
I1
sI982
I2
sI984
I1
sI986
I1
sI988
I3
sI989
I1
sI991
I1
sI993
I2
sI995
I1
sI996
I3
sI997
I2
sI4534
I1
sI1000
I2
sI1002
I4
sI1003
I1
sI1004
I3
sI1005
I1
sI1006
I2
sI1008
I1
sI1009
I3
sI1010
I2
sI1011
I2
sI1012
I1
sI1014
I2
sI1016
I2
sI1019
I4
sI1020
I2
sI1021
I2
sI1022
I2
sI1024
I1
sI1025
I1
sI1026
I2
sI1027
I2
sI1028
I3
sI1030
I3
sI1031
I4
sI1034
I1
sI1035
I1
sI1036
I1
sI1037
I1
sI1038
I2
sI1039
I3
sI1040
I3
sI1041
I1
sI1042
I1
sI1043
I1
sI1044
I1
sI2268
I1
sI1046
I2
sI1047
I1
sI1049
I2
sI1050
I2
sI1051
I2
sI1052
I1
sI1054
I1
sI1055
I1
sI1056
I2
sI1057
I3
sI1060
I1
sI1061
I1
sI1062
I1
sI1064
I2
sI1069
I1
sI1070
I3
sI1071
I2
sI1073
I2
sI1074
I1
sI1075
I3
sI1076
I1
sI1077
I1
sI1078
I2
sI1079
I1
sI1080
I1
sI1082
I2
sI1083
I1
sI1084
I1
sI1085
I2
sI1087
I2
sI1089
I1
sI1091
I2
sI1093
I2
sI1096
I2
sI1098
I2
sI1099
I2
sI1100
I1
sI1101
I2
sI1103
I2
sI1104
I1
sI1105
I2
sI1106
I1
sI1107
I1
sI1110
I1
sI1113
I2
sI1114
I2
sI1116
I2
sI1117
I4
sI1118
I1
sI1119
I1
sI1120
I1
sI1123
I1
sI1126
I1
sI1128
I3
sI1130
I1
sI1131
I1
sI1132
I1
sI1134
I1
sI1137
I1
sI1139
I1
sI1141
I2
sI1142
I1
sI1143
I1
sI1146
I2
sI1148
I2
sI1149
I2
sI1743
I1
sI1151
I2
sI1154
I1
sI1155
I2
sI1156
I2
sI1157
I2
sI1158
I1
sI1165
I2
sI1168
I1
sI1169
I1
sI1170
I3
sI1171
I1
sI1172
I1
sI1173
I1
sI1174
I2
sI1175
I1
sI1176
I2
sI1177
I1
sI1180
I1
sI1181
I1
sI1182
I1
sI1184
I1
sI1186
I1
sI1187
I1
sI1189
I1
sI1191
I2
sI1192
I1
sI1564
I1
sI1194
I1
sI2247
I1
sI1196
I1
sI1198
I2
sI1199
I1
sI1200
I1
sI1201
I1
sI1202
I2
sI1203
I1
sI1204
I1
sI1205
I1
sI1207
I1
sI1209
I1
sI3258
I1
sI1212
I1
sI1215
I1
sI1216
I1
sI1217
I1
sI1220
I2
sI1221
I1
sI1222
I2
sI1230
I1
sI1232
I2
sI1233
I2
sI1235
I1
sI1236
I1
sI1241
I2
sI1243
I4
sI2204
I1
sI1247
I1
sI1248
I1
sI3300
I1
sI1255
I1
sI1258
I1
sI1260
I2
sI1261
I1
sI1262
I1
sI4270
I1
sI1266
I2
sI3315
I1
sI1268
I1
sI1270
I1
sI1277
I2
sI2889
I1
sI2603
I1
sI1284
I1
sI1287
I1
sI1290
I2
sI1301
I1
sI1303
I1
sI1304
I1
sI1305
I1
sI1310
I1
sI1312
I1
sI1315
I1
sI1316
I1
sI1317
I2
sI1319
I1
sI1320
I1
sI1321
I3
sI1326
I1
sI1332
I1
sI2270
I1
sI1334
I1
sI1336
I2
sI1341
I1
sI1342
I1
sI3392
I1
sI1345
I1
sI1346
I1
sI1545
I1
sI1349
I1
sI1352
I1
sI1353
I2
sI1355
I1
sI1356
I1
sI1357
I1
sI1361
I1
sI4323
I1
sI1366
I1
sI1367
I2
sI1371
I1
sI1373
I2
sI1376
I2
sI1378
I1
sI1380
I1
sI1386
I1
sI1388
I2
sI1393
I1
sI1397
I1
sI1398
I1
sI1400
I1
sI1402
I1
sI1403
I1
sI1405
I1
sI1407
I1
sI1410
I2
sI1412
I1
sI1417
I1
sI1419
I1
sI1420
I1
sI2626
I1
sI1424
I1
sI3478
I1
sI1432
I1
sI1435
I1
sI1439
I1
sI1441
I1
sI1442
I1
sI1444
I1
sI1446
I1
sI1723
I1
sI1449
I1
sI1451
I1
sI1452
I1
sI1453
I1
sI1458
I1
sI1464
I1
sI1476
I1
sI1481
I1
sI1482
I1
sI2796
I1
sI1486
I1
sI1489
I1
sI1490
I1
sI1210
I1
sI1495
I1
sI1499
I1
sI1500
I1
sI2298
I1
sI1502
I1
sI1505
I1
sI1510
I1
sI1515
I1
sI1523
I1
sI1526
I1
sI1527
I1
sI1483
I2
sI2644
I1
sI2303
I1
sI1534
I1
sI1537
I1
sI1539
I1
sI1540
I1
sI2097
I1
sI940
I1
sI1551
I1
sI1555
I2
sI1557
I1
sI2234
I1
sI1562
I2
sI3079
I1
sI1569
I1
sI1571
I1
sI1573
I1
sI3865
I1
sI1576
I2
sI1579
I1
sI1580
I1
sI1589
I1
sI2313
I1
sI948
I1
sI1596
I1
sI1598
I1
sI1600
I2
sI1603
I1
sI2070
I1
sI1608
I1
sI1624
I1
sI1625
I1
sI1627
I1
sI1628
I1
sI1629
I1
sI1630
I1
sI1634
I1
sI1636
I1
sI1637
I1
sI1638
I1
sI1647
I1
sI2664
I1
sI1650
I1
sI1661
I1
sI1664
I2
sI1666
I1
sI1671
I1
sI1680
I1
sI1698
I1
sI2332
I1
sI1708
I1
sI1712
I1
sI1715
I1
sI1719
I1
sI2335
I1
sI1734
I1
sI1742
I1
sI973
I1
sI1748
I1
sI1761
I1
sI1762
I1
sI1768
I1
sI1773
I1
sI1795
I2
sI1801
I1
sI2755
I1
sI1813
I1
sI1817
I1
sI1822
I1
sI1829
I1
sI1830
I1
sI1493
I1
sI2469
I1
sI2107
I1
sI1846
I1
sI3380
I1
sI751
I3
sI8843
I1
sI1860
I1
sI1866
I1
sI2108
I1
sI1878
I1
sI1882
I1
sI1885
I1
sI1889
I1
sI3126
I1
sI1911
I2
sI1344
I1
sI2178
I1
sI1946
I1
sI815
I3
sI1962
I1
sI1964
I1
sI2376
I1
sI1970
I1
sI1971
I1
sI2378
I1
sI816
I3
sI1984
I1
sI1989
I1
sI1994
I1
sI2006
I1
sI885
I1
sI335
I38
sI2018
I1
sI2385
I1
sI2026
I1
sI2030
I1
s.